; ModuleID = '39/1376.c'
source_filename = "39/1376.c"
target datalayout = "e-m:e-p270:32:32-p271:32:32-p272:64:64-i64:64-f80:128-n8:16:32:64-S128"
target triple = "x86_64-pc-linux-gnu"

%struct.student = type { [20 x i8], i32, i32, i8, i8, i32 }

@.str = private unnamed_addr constant [3 x i8] c"%d\00", align 1
@.str.1 = private unnamed_addr constant [15 x i8] c"%s%d%d %c %c%d\00", align 1
@stu = common dso_local global [200 x %struct.student] zeroinitializer, align 16
@.str.2 = private unnamed_addr constant [4 x i8] c"%s\0A\00", align 1
@.str.3 = private unnamed_addr constant [7 x i8] c"%d\0A%d\0A\00", align 1

; Function Attrs: noinline nounwind uwtable
define dso_local void @main() #0 {
  %1 = alloca i32, align 4
  %2 = alloca i32, align 4
  %3 = alloca i32, align 4
  %4 = alloca i32, align 4
  %5 = alloca i32, align 4
  %6 = alloca i32, align 4
  store i32 0, i32* %3, align 4
  store i32 0, i32* %5, align 4
  store i32 0, i32* %6, align 4
  %7 = call i32 (i8*, ...) @__isoc99_scanf(i8* getelementptr inbounds ([3 x i8], [3 x i8]* @.str, i64 0, i64 0), i32* %1)
  store i32 0, i32* %2, align 4
  br label %8

8:                                                ; preds = %39, %0
  %9 = load i32, i32* %2, align 4
  %10 = load i32, i32* %1, align 4
  %11 = icmp slt i32 %9, %10
  br i1 %11, label %12, label %42

12:                                               ; preds = %8
  %13 = load i32, i32* %2, align 4
  %14 = sext i32 %13 to i64
  %15 = getelementptr inbounds [200 x %struct.student], [200 x %struct.student]* @stu, i64 0, i64 %14
  %16 = getelementptr inbounds %struct.student, %struct.student* %15, i32 0, i32 0
  %17 = getelementptr inbounds [20 x i8], [20 x i8]* %16, i64 0, i64 0
  %18 = load i32, i32* %2, align 4
  %19 = sext i32 %18 to i64
  %20 = getelementptr inbounds [200 x %struct.student], [200 x %struct.student]* @stu, i64 0, i64 %19
  %21 = getelementptr inbounds %struct.student, %struct.student* %20, i32 0, i32 1
  %22 = load i32, i32* %2, align 4
  %23 = sext i32 %22 to i64
  %24 = getelementptr inbounds [200 x %struct.student], [200 x %struct.student]* @stu, i64 0, i64 %23
  %25 = getelementptr inbounds %struct.student, %struct.student* %24, i32 0, i32 2
  %26 = load i32, i32* %2, align 4
  %27 = sext i32 %26 to i64
  %28 = getelementptr inbounds [200 x %struct.student], [200 x %struct.student]* @stu, i64 0, i64 %27
  %29 = getelementptr inbounds %struct.student, %struct.student* %28, i32 0, i32 3
  %30 = load i32, i32* %2, align 4
  %31 = sext i32 %30 to i64
  %32 = getelementptr inbounds [200 x %struct.student], [200 x %struct.student]* @stu, i64 0, i64 %31
  %33 = getelementptr inbounds %struct.student, %struct.student* %32, i32 0, i32 4
  %34 = load i32, i32* %2, align 4
  %35 = sext i32 %34 to i64
  %36 = getelementptr inbounds [200 x %struct.student], [200 x %struct.student]* @stu, i64 0, i64 %35
  %37 = getelementptr inbounds %struct.student, %struct.student* %36, i32 0, i32 5
  %38 = call i32 (i8*, ...) @__isoc99_scanf(i8* getelementptr inbounds ([15 x i8], [15 x i8]* @.str.1, i64 0, i64 0), i8* %17, i32* %21, i32* %25, i8* %29, i8* %33, i32* %37)
  br label %39

39:                                               ; preds = %12
  %40 = load i32, i32* %2, align 4
  %41 = add nsw i32 %40, 1
  store i32 %41, i32* %2, align 4
  br label %8

42:                                               ; preds = %8
  store i32 0, i32* %2, align 4
  br label %43

43:                                               ; preds = %145, %42
  %44 = load i32, i32* %2, align 4
  %45 = load i32, i32* %1, align 4
  %46 = icmp slt i32 %44, %45
  br i1 %46, label %47, label %148

47:                                               ; preds = %43
  store i32 0, i32* %4, align 4
  %48 = load i32, i32* %2, align 4
  %49 = sext i32 %48 to i64
  %50 = getelementptr inbounds [200 x %struct.student], [200 x %struct.student]* @stu, i64 0, i64 %49
  %51 = getelementptr inbounds %struct.student, %struct.student* %50, i32 0, i32 1
  %52 = load i32, i32* %51, align 4
  %53 = icmp sgt i32 %52, 80
  br i1 %53, label %54, label %66

54:                                               ; preds = %47
  %55 = load i32, i32* %2, align 4
  %56 = sext i32 %55 to i64
  %57 = getelementptr inbounds [200 x %struct.student], [200 x %struct.student]* @stu, i64 0, i64 %56
  %58 = getelementptr inbounds %struct.student, %struct.student* %57, i32 0, i32 5
  %59 = load i32, i32* %58, align 4
  %60 = icmp sge i32 %59, 1
  br i1 %60, label %61, label %66

61:                                               ; preds = %54
  %62 = load i32, i32* %4, align 4
  %63 = add nsw i32 %62, 8000
  store i32 %63, i32* %4, align 4
  %64 = load i32, i32* %3, align 4
  %65 = add nsw i32 %64, 8000
  store i32 %65, i32* %3, align 4
  br label %66

66:                                               ; preds = %61, %54, %47
  %67 = load i32, i32* %2, align 4
  %68 = sext i32 %67 to i64
  %69 = getelementptr inbounds [200 x %struct.student], [200 x %struct.student]* @stu, i64 0, i64 %68
  %70 = getelementptr inbounds %struct.student, %struct.student* %69, i32 0, i32 1
  %71 = load i32, i32* %70, align 4
  %72 = icmp sgt i32 %71, 85
  br i1 %72, label %73, label %85

73:                                               ; preds = %66
  %74 = load i32, i32* %2, align 4
  %75 = sext i32 %74 to i64
  %76 = getelementptr inbounds [200 x %struct.student], [200 x %struct.student]* @stu, i64 0, i64 %75
  %77 = getelementptr inbounds %struct.student, %struct.student* %76, i32 0, i32 2
  %78 = load i32, i32* %77, align 4
  %79 = icmp sgt i32 %78, 80
  br i1 %79, label %80, label %85

80:                                               ; preds = %73
  %81 = load i32, i32* %4, align 4
  %82 = add nsw i32 %81, 4000
  store i32 %82, i32* %4, align 4
  %83 = load i32, i32* %3, align 4
  %84 = add nsw i32 %83, 4000
  store i32 %84, i32* %3, align 4
  br label %85

85:                                               ; preds = %80, %73, %66
  %86 = load i32, i32* %2, align 4
  %87 = sext i32 %86 to i64
  %88 = getelementptr inbounds [200 x %struct.student], [200 x %struct.student]* @stu, i64 0, i64 %87
  %89 = getelementptr inbounds %struct.student, %struct.student* %88, i32 0, i32 1
  %90 = load i32, i32* %89, align 4
  %91 = icmp sgt i32 %90, 90
  br i1 %91, label %92, label %97

92:                                               ; preds = %85
  %93 = load i32, i32* %4, align 4
  %94 = add nsw i32 %93, 2000
  store i32 %94, i32* %4, align 4
  %95 = load i32, i32* %3, align 4
  %96 = add nsw i32 %95, 2000
  store i32 %96, i32* %3, align 4
  br label %97

97:                                               ; preds = %92, %85
  %98 = load i32, i32* %2, align 4
  %99 = sext i32 %98 to i64
  %100 = getelementptr inbounds [200 x %struct.student], [200 x %struct.student]* @stu, i64 0, i64 %99
  %101 = getelementptr inbounds %struct.student, %struct.student* %100, i32 0, i32 1
  %102 = load i32, i32* %101, align 4
  %103 = icmp sgt i32 %102, 85
  br i1 %103, label %104, label %117

104:                                              ; preds = %97
  %105 = load i32, i32* %2, align 4
  %106 = sext i32 %105 to i64
  %107 = getelementptr inbounds [200 x %struct.student], [200 x %struct.student]* @stu, i64 0, i64 %106
  %108 = getelementptr inbounds %struct.student, %struct.student* %107, i32 0, i32 4
  %109 = load i8, i8* %108, align 1
  %110 = sext i8 %109 to i32
  %111 = icmp eq i32 %110, 89
  br i1 %111, label %112, label %117

112:                                              ; preds = %104
  %113 = load i32, i32* %4, align 4
  %114 = add nsw i32 %113, 1000
  store i32 %114, i32* %4, align 4
  %115 = load i32, i32* %3, align 4
  %116 = add nsw i32 %115, 1000
  store i32 %116, i32* %3, align 4
  br label %117

117:                                              ; preds = %112, %104, %97
  %118 = load i32, i32* %2, align 4
  %119 = sext i32 %118 to i64
  %120 = getelementptr inbounds [200 x %struct.student], [200 x %struct.student]* @stu, i64 0, i64 %119
  %121 = getelementptr inbounds %struct.student, %struct.student* %120, i32 0, i32 2
  %122 = load i32, i32* %121, align 4
  %123 = icmp sgt i32 %122, 80
  br i1 %123, label %124, label %137

124:                                              ; preds = %117
  %125 = load i32, i32* %2, align 4
  %126 = sext i32 %125 to i64
  %127 = getelementptr inbounds [200 x %struct.student], [200 x %struct.student]* @stu, i64 0, i64 %126
  %128 = getelementptr inbounds %struct.student, %struct.student* %127, i32 0, i32 3
  %129 = load i8, i8* %128, align 4
  %130 = sext i8 %129 to i32
  %131 = icmp eq i32 %130, 89
  br i1 %131, label %132, label %137

132:                                              ; preds = %124
  %133 = load i32, i32* %4, align 4
  %134 = add nsw i32 %133, 850
  store i32 %134, i32* %4, align 4
  %135 = load i32, i32* %3, align 4
  %136 = add nsw i32 %135, 850
  store i32 %136, i32* %3, align 4
  br label %137

137:                                              ; preds = %132, %124, %117
  %138 = load i32, i32* %4, align 4
  %139 = load i32, i32* %5, align 4
  %140 = icmp sgt i32 %138, %139
  br i1 %140, label %141, label %144

141:                                              ; preds = %137
  %142 = load i32, i32* %4, align 4
  store i32 %142, i32* %5, align 4
  %143 = load i32, i32* %2, align 4
  store i32 %143, i32* %6, align 4
  br label %144

144:                                              ; preds = %141, %137
  br label %145

145:                                              ; preds = %144
  %146 = load i32, i32* %2, align 4
  %147 = add nsw i32 %146, 1
  store i32 %147, i32* %2, align 4
  br label %43

148:                                              ; preds = %43
  %149 = load i32, i32* %6, align 4
  %150 = sext i32 %149 to i64
  %151 = getelementptr inbounds [200 x %struct.student], [200 x %struct.student]* @stu, i64 0, i64 %150
  %152 = getelementptr inbounds %struct.student, %struct.student* %151, i32 0, i32 0
  %153 = getelementptr inbounds [20 x i8], [20 x i8]* %152, i64 0, i64 0
  %154 = call i32 (i8*, ...) @printf(i8* getelementptr inbounds ([4 x i8], [4 x i8]* @.str.2, i64 0, i64 0), i8* %153)
  %155 = load i32, i32* %5, align 4
  %156 = load i32, i32* %3, align 4
  %157 = call i32 (i8*, ...) @printf(i8* getelementptr inbounds ([7 x i8], [7 x i8]* @.str.3, i64 0, i64 0), i32 %155, i32 %156)
  ret void
}

declare dso_local i32 @__isoc99_scanf(i8*, ...) #1

declare dso_local i32 @printf(i8*, ...) #1


!llvm.module.flags = !{!0}
!llvm.ident = !{!1}

!0 = !{i32 1, !"wchar_size", i32 4}
!1 = !{!"clang version 10.0.0-4ubuntu1 "}
